target datalayout = "e-m:e-p270:32:32-p271:32:32-p272:64:64-i64:64-i128:128-f80:128-n8:16:32:64-S128"
target triple = "x86_64-pc-linux-gnu"

@hf_ieee80211_eht_ttl_mapping_control = internal global i32 0, align 4
@hf_ieee80211_eht_ttl_mapping_presence = internal global i32 0, align 4
@hf_ieee80211_eht_ttl_mapping_switch_time = internal global i32 0, align 4
@hf_ieee80211_eht_ttl_mapping_expected_duration = internal global i32 0, align 4
@hf_ieee80211_eht_ttl_mapping_tid_0_link_mapping = internal global i32 0, align 4
@hf_ieee80211_eht_ttl_mapping_tid_1_link_mapping = internal global i32 0, align 4
@hf_ieee80211_eht_ttl_mapping_tid_2_link_mapping = internal global i32 0, align 4
@hf_ieee80211_eht_ttl_mapping_tid_3_link_mapping = internal global i32 0, align 4
@hf_ieee80211_eht_ttl_mapping_tid_4_link_mapping = internal global i32 0, align 4
@hf_ieee80211_eht_ttl_mapping_tid_5_link_mapping = internal global i32 0, align 4
@hf_ieee80211_eht_ttl_mapping_tid_6_link_mapping = internal global i32 0, align 4
@hf_ieee80211_eht_ttl_mapping_tid_7_link_mapping = internal global i32 0, align 4
@ett_eht_ttl_mapping = internal global i32 0, align 4

; Function Attrs: null_pointer_is_valid sspstrong uwtable
define internal void @dissect_tid_to_link_mapping(ptr noundef %0, ptr noundef %1, ptr noundef %2, i32 noundef %3, i32 noundef %4) #1 {
  %6 = alloca ptr, align 8
  %7 = alloca ptr, align 8
  %8 = alloca ptr, align 8
  %9 = alloca i32, align 4
  %10 = alloca i32, align 4
  %11 = alloca ptr, align 8
  %12 = alloca i8, align 1
  %13 = alloca i8, align 1
  %14 = alloca i8, align 1
  %15 = alloca [8 x i32], align 16
  %16 = alloca i32, align 4
  %17 = alloca i32, align 4
  store ptr %0, ptr %6, align 8
  store ptr %1, ptr %7, align 8
  store ptr %2, ptr %8, align 8
  store i32 %3, ptr %9, align 4
  store i32 %4, ptr %10, align 4
  call void @llvm.lifetime.start.p0(i64 8, ptr %11) #19
  store ptr null, ptr %11, align 8
  call void @llvm.lifetime.start.p0(i64 1, ptr %12) #19
  call void @llvm.lifetime.start.p0(i64 1, ptr %13) #19
  %18 = load ptr, ptr %6, align 8
  %19 = load i32, ptr %9, align 4
  %20 = call zeroext i8 @tvb_get_uint8(ptr noundef %18, i32 noundef %19)
  store i8 %20, ptr %13, align 1
  call void @llvm.lifetime.start.p0(i64 1, ptr %14) #19
  store i8 2, ptr %14, align 1
  call void @llvm.lifetime.start.p0(i64 32, ptr %15) #19
  %21 = load i32, ptr @hf_ieee80211_eht_ttl_mapping_tid_0_link_mapping, align 4
  store i32 %21, ptr %15, align 4
  %22 = getelementptr inbounds i32, ptr %15, i64 1
  %23 = load i32, ptr @hf_ieee80211_eht_ttl_mapping_tid_1_link_mapping, align 4
  store i32 %23, ptr %22, align 4
  %24 = getelementptr inbounds i32, ptr %15, i64 2
  %25 = load i32, ptr @hf_ieee80211_eht_ttl_mapping_tid_2_link_mapping, align 4
  store i32 %25, ptr %24, align 4
  %26 = getelementptr inbounds i32, ptr %15, i64 3
  %27 = load i32, ptr @hf_ieee80211_eht_ttl_mapping_tid_3_link_mapping, align 4
  store i32 %27, ptr %26, align 4
  %28 = getelementptr inbounds i32, ptr %15, i64 4
  %29 = load i32, ptr @hf_ieee80211_eht_ttl_mapping_tid_4_link_mapping, align 4
  store i32 %29, ptr %28, align 4
  %30 = getelementptr inbounds i32, ptr %15, i64 5
  %31 = load i32, ptr @hf_ieee80211_eht_ttl_mapping_tid_5_link_mapping, align 4
  store i32 %31, ptr %30, align 4
  %32 = getelementptr inbounds i32, ptr %15, i64 6
  %33 = load i32, ptr @hf_ieee80211_eht_ttl_mapping_tid_6_link_mapping, align 4
  store i32 %33, ptr %32, align 4
  %34 = getelementptr inbounds i32, ptr %15, i64 7
  %35 = load i32, ptr @hf_ieee80211_eht_ttl_mapping_tid_7_link_mapping, align 4
  store i32 %35, ptr %34, align 4
  call void @llvm.lifetime.start.p0(i64 4, ptr %16) #19
  store i32 0, ptr %16, align 4
  %36 = load ptr, ptr %8, align 8
  %37 = load ptr, ptr %6, align 8
  %38 = load i32, ptr %9, align 4
  %39 = load i32, ptr @hf_ieee80211_eht_ttl_mapping_control, align 4
  %40 = load i32, ptr @ett_eht_ttl_mapping, align 4
  %41 = call ptr @proto_tree_add_bitmask_with_flags(ptr noundef %36, ptr noundef %37, i32 noundef %38, i32 noundef %39, i32 noundef %40, ptr noundef @eht_ttl_mapping_control_hdrs, i32 noundef -2147483648, i32 noundef 1)
  store ptr %41, ptr %11, align 8
  %42 = load i32, ptr %9, align 4
  %43 = add i32 %42, 1
  store i32 %43, ptr %9, align 4
  %44 = load i32, ptr %10, align 4
  %45 = icmp eq i32 %44, 1
  br i1 %45, label %46, label %47

46:                                               ; preds = %5
  store i32 1, ptr %17, align 4
  br label %121

47:                                               ; preds = %5
  %48 = load ptr, ptr %6, align 8
  %49 = load i32, ptr %9, align 4
  %50 = call zeroext i8 @tvb_get_uint8(ptr noundef %48, i32 noundef %49)
  store i8 %50, ptr %12, align 1
  %51 = load ptr, ptr %11, align 8
  %52 = load i32, ptr @hf_ieee80211_eht_ttl_mapping_presence, align 4
  %53 = load ptr, ptr %6, align 8
  %54 = load i32, ptr %9, align 4
  %55 = call ptr @proto_tree_add_item(ptr noundef %51, i32 noundef %52, ptr noundef %53, i32 noundef %54, i32 noundef 1, i32 noundef -2147483648)
  %56 = load i32, ptr %9, align 4
  %57 = add i32 %56, 1
  store i32 %57, ptr %9, align 4
  %58 = load i8, ptr %13, align 1
  %59 = zext i8 %58 to i32
  %60 = and i32 %59, 8
  %61 = icmp ne i32 %60, 0
  br i1 %61, label %62, label %70

62:                                               ; preds = %47
  %63 = load ptr, ptr %8, align 8
  %64 = load i32, ptr @hf_ieee80211_eht_ttl_mapping_switch_time, align 4
  %65 = load ptr, ptr %6, align 8
  %66 = load i32, ptr %9, align 4
  %67 = call ptr @proto_tree_add_item(ptr noundef %63, i32 noundef %64, ptr noundef %65, i32 noundef %66, i32 noundef 2, i32 noundef -2147483648)
  %68 = load i32, ptr %9, align 4
  %69 = add i32 %68, 2
  store i32 %69, ptr %9, align 4
  br label %70

70:                                               ; preds = %62, %47
  %71 = load i8, ptr %13, align 1
  %72 = zext i8 %71 to i32
  %73 = and i32 %72, 16
  %74 = icmp ne i32 %73, 0
  br i1 %74, label %75, label %83

75:                                               ; preds = %70
  %76 = load ptr, ptr %8, align 8
  %77 = load i32, ptr @hf_ieee80211_eht_ttl_mapping_expected_duration, align 4
  %78 = load ptr, ptr %6, align 8
  %79 = load i32, ptr %9, align 4
  %80 = call ptr @proto_tree_add_item(ptr noundef %76, i32 noundef %77, ptr noundef %78, i32 noundef %79, i32 noundef 3, i32 noundef -2147483648)
  %81 = load i32, ptr %9, align 4
  %82 = add i32 %81, 3
  store i32 %82, ptr %9, align 4
  br label %83

83:                                               ; preds = %75, %70
  %84 = load i8, ptr %13, align 1
  %85 = zext i8 %84 to i32
  %86 = and i32 %85, 32
  %87 = icmp ne i32 %86, 0
  br i1 %87, label %88, label %89

88:                                               ; preds = %83
  store i8 1, ptr %14, align 1
  br label %89

89:                                               ; preds = %88, %83
  br label %90

90:                                               ; preds = %113, %89
  %91 = load i8, ptr %12, align 1
  %92 = icmp ne i8 %91, 0
  br i1 %92, label %93, label %120

93:                                               ; preds = %90
  %94 = load i8, ptr %12, align 1
  %95 = zext i8 %94 to i32
  %96 = and i32 %95, 1
  %97 = icmp ne i32 %96, 0
  br i1 %97, label %98, label %113

98:                                               ; preds = %93
  %99 = load ptr, ptr %8, align 8
  %100 = load i32, ptr %16, align 4
  %101 = sext i32 %100 to i64
  %102 = getelementptr [8 x i32], ptr %15, i64 0, i64 %101
  %103 = load i32, ptr %102, align 4
  %104 = load ptr, ptr %6, align 8
  %105 = load i32, ptr %9, align 4
  %106 = load i8, ptr %14, align 1
  %107 = zext i8 %106 to i32
  %108 = call ptr @proto_tree_add_item(ptr noundef %99, i32 noundef %103, ptr noundef %104, i32 noundef %105, i32 noundef %107, i32 noundef -2147483648)
  %109 = load i8, ptr %14, align 1
  %110 = zext i8 %109 to i32
  %111 = load i32, ptr %9, align 4
  %112 = add i32 %111, %110
  store i32 %112, ptr %9, align 4
  br label %113

113:                                              ; preds = %98, %93
  %114 = load i32, ptr %16, align 4
  %115 = add i32 %114, 1
  store i32 %115, ptr %16, align 4
  %116 = load i8, ptr %12, align 1
  %117 = zext i8 %116 to i32
  %118 = ashr i32 %117, 1
  %119 = trunc i32 %118 to i8
  store i8 %119, ptr %12, align 1
  br label %90, !llvm.loop !239

120:                                              ; preds = %90
  store i32 0, ptr %17, align 4
  br label %121

121:                                              ; preds = %120, %46
  call void @llvm.lifetime.end.p0(i64 4, ptr %16) #19
  call void @llvm.lifetime.end.p0(i64 32, ptr %15) #19
  call void @llvm.lifetime.end.p0(i64 1, ptr %14) #19
  call void @llvm.lifetime.end.p0(i64 1, ptr %13) #19
  call void @llvm.lifetime.end.p0(i64 1, ptr %12) #19
  call void @llvm.lifetime.end.p0(i64 8, ptr %11) #19
  %122 = load i32, ptr %17, align 4
  switch i32 %122, label %124 [
    i32 0, label %123
    i32 1, label %123
  ]

123:                                              ; preds = %121, %121
  ret void

124:                                              ; preds = %121
  unreachable
}