; Function Attrs: null_pointer_is_valid sspstrong uwtable
define internal fastcc void @dissect_tid_to_link_mapping(ptr noundef %0, ptr noundef %1, i32 noundef range(i32 0, 2147483647) %2) unnamed_addr #2 {
  %4 = alloca [8 x i32], align 16
  %5 = tail call zeroext i8 @tvb_get_uint8(ptr noundef %0, i32 noundef 1)
  call void @llvm.lifetime.start.p0(i64 32, ptr nonnull %4) #24
  %6 = load i32, ptr @hf_ieee80211_eht_ttl_mapping_tid_0_link_mapping, align 4
  store i32 %6, ptr %4, align 16
  %7 = getelementptr inbounds nuw i8, ptr %4, i64 4
  %8 = load i32, ptr @hf_ieee80211_eht_ttl_mapping_tid_1_link_mapping, align 4
  store i32 %8, ptr %7, align 4
  %9 = getelementptr inbounds nuw i8, ptr %4, i64 8
  %10 = load i32, ptr @hf_ieee80211_eht_ttl_mapping_tid_2_link_mapping, align 4
  store i32 %10, ptr %9, align 8
  %11 = getelementptr inbounds nuw i8, ptr %4, i64 12
  %12 = load i32, ptr @hf_ieee80211_eht_ttl_mapping_tid_3_link_mapping, align 4
  store i32 %12, ptr %11, align 4
  %13 = getelementptr inbounds nuw i8, ptr %4, i64 16
  %14 = load i32, ptr @hf_ieee80211_eht_ttl_mapping_tid_4_link_mapping, align 4
  store i32 %14, ptr %13, align 16
  %15 = getelementptr inbounds nuw i8, ptr %4, i64 20
  %16 = load i32, ptr @hf_ieee80211_eht_ttl_mapping_tid_5_link_mapping, align 4
  store i32 %16, ptr %15, align 4
  %17 = getelementptr inbounds nuw i8, ptr %4, i64 24
  %18 = load i32, ptr @hf_ieee80211_eht_ttl_mapping_tid_6_link_mapping, align 4
  store i32 %18, ptr %17, align 8
  %19 = getelementptr inbounds nuw i8, ptr %4, i64 28
  %20 = load i32, ptr @hf_ieee80211_eht_ttl_mapping_tid_7_link_mapping, align 4
  store i32 %20, ptr %19, align 4
  %21 = load i32, ptr @hf_ieee80211_eht_ttl_mapping_control, align 4
  %22 = load i32, ptr @ett_eht_ttl_mapping, align 4
  %23 = tail call ptr @proto_tree_add_bitmask_with_flags(ptr noundef %1, ptr noundef %0, i32 noundef 1, i32 noundef %21, i32 noundef %22, ptr noundef nonnull @eht_ttl_mapping_control_hdrs, i32 noundef -2147483648, i32 noundef 1)
  %24 = icmp eq i32 %2, 1
  br i1 %24, label %.loopexit, label %25

25:                                               ; preds = %3
  %26 = tail call zeroext i8 @tvb_get_uint8(ptr noundef %0, i32 noundef 2)
  %27 = load i32, ptr @hf_ieee80211_eht_ttl_mapping_presence, align 4
  %28 = tail call ptr @proto_tree_add_item(ptr noundef %23, i32 noundef %27, ptr noundef %0, i32 noundef 2, i32 noundef 1, i32 noundef -2147483648)
  %29 = zext i8 %5 to i32
  %30 = and i32 %29, 8
  %.not = icmp eq i32 %30, 0
  br i1 %.not, label %34, label %31

31:                                               ; preds = %25
  %32 = load i32, ptr @hf_ieee80211_eht_ttl_mapping_switch_time, align 4
  %33 = tail call ptr @proto_tree_add_item(ptr noundef %1, i32 noundef %32, ptr noundef %0, i32 noundef 3, i32 noundef 2, i32 noundef -2147483648)
  br label %34

34:                                               ; preds = %31, %25
  %.035 = phi i32 [ 5, %31 ], [ 3, %25 ]
  %35 = and i32 %29, 16
  %.not37 = icmp eq i32 %35, 0
  br i1 %.not37, label %40, label %36

36:                                               ; preds = %34
  %37 = load i32, ptr @hf_ieee80211_eht_ttl_mapping_expected_duration, align 4
  %38 = tail call ptr @proto_tree_add_item(ptr noundef %1, i32 noundef %37, ptr noundef %0, i32 noundef %.035, i32 noundef 3, i32 noundef -2147483648)
  %39 = add nuw nsw i32 %.035, 3
  br label %40

40:                                               ; preds = %36, %34
  %.1 = phi i32 [ %39, %36 ], [ %.035, %34 ]
  %41 = and i32 %29, 32
  %.not38 = icmp eq i32 %41, 0
  %spec.select = select i1 %.not38, i32 2, i32 1
  %.not391 = icmp eq i8 %26, 0
  br i1 %.not391, label %.loopexit, label %.lr.ph

.lr.ph:                                           ; preds = %40, %48
  %indvars.iv = phi i64 [ %indvars.iv.next, %48 ], [ 0, %40 ]
  %.23 = phi i32 [ %.3, %48 ], [ %.1, %40 ]
  %.0362 = phi i8 [ %49, %48 ], [ %26, %40 ]
  %42 = and i8 %.0362, 1
  %.not40 = icmp eq i8 %42, 0
  br i1 %.not40, label %48, label %43

43:                                               ; preds = %.lr.ph
  %44 = getelementptr [8 x i32], ptr %4, i64 0, i64 %indvars.iv
  %45 = load i32, ptr %44, align 4
  %46 = tail call ptr @proto_tree_add_item(ptr noundef %1, i32 noundef %45, ptr noundef %0, i32 noundef %.23, i32 noundef %spec.select, i32 noundef -2147483648)
  %47 = add i32 %.23, %spec.select
  br label %48

48:                                               ; preds = %43, %.lr.ph
  %.3 = phi i32 [ %47, %43 ], [ %.23, %.lr.ph ]
  %indvars.iv.next = add nuw nsw i64 %indvars.iv, 1
  %49 = lshr i8 %.0362, 1
  %.not39 = icmp ult i8 %.0362, 2
  br i1 %.not39, label %.loopexit, label %.lr.ph, !llvm.loop !262

.loopexit:                                        ; preds = %48, %40, %3
  call void @llvm.lifetime.end.p0(i64 32, ptr nonnull %4) #24
  ret void
}